; Function Attrs: mustprogress nounwind uwtable
define void @_ZN6icu_7721RuleBasedNumberFormatD2Ev(ptr noundef nonnull align 8 dereferenceable(456) initializes((0, 8)) %0) unnamed_addr #7 align 2 personality ptr @__gxx_personality_v0 {
  store ptr getelementptr inbounds nuw inrange(-16, 408) (i8, ptr @_ZTVN6icu_7721RuleBasedNumberFormatE, i64 16), ptr %0, align 8, !tbaa !3
  invoke void @_ZN6icu_7721RuleBasedNumberFormat7disposeEv(ptr noundef nonnull align 8 dereferenceable(456) %0)
          to label %2 unwind label %5

2:                                                ; preds = %1
  %3 = getelementptr inbounds nuw i8, ptr %0, i64 376
  tail call void @_ZN6icu_7713UnicodeStringD1Ev(ptr noundef nonnull align 8 dereferenceable(64) %3) #21
  %4 = getelementptr inbounds nuw i8, ptr %0, i64 96
  tail call void @_ZN6icu_776LocaleD1Ev(ptr noundef nonnull align 8 dereferenceable(217) %4) #21
  tail call void @_ZN6icu_7712NumberFormatD2Ev(ptr noundef nonnull align 8 dereferenceable(60) %0) #21
  ret void

5:                                                ; preds = %1
  %6 = landingpad { ptr, i32 }
          catch ptr null
  %7 = extractvalue { ptr, i32 } %6, 0
  tail call void @__clang_call_terminate(ptr %7) #20
  unreachable
}